; Function Attrs: mustprogress nounwind uwtable
define hidden void @_ZN12GCInitLogger10print_numaEv(ptr nocapture nonnull readnone align 8 %0) unnamed_addr #0 align 2 {
  %2 = alloca %class.GCLogPreciousHandle, align 8
  %3 = alloca %class.GCLogPreciousHandle, align 8
  %4 = alloca %class.GCLogPreciousHandle, align 8
  %5 = load i8, ptr @UseNUMA, align 1
  %6 = trunc i8 %5 to i1
  br i1 %6, label %7, label %9

7:                                                ; preds = %1
  store i32 3, ptr %2, align 8
  %.sroa.21.0..sroa_idx.i = getelementptr inbounds i8, ptr %2, i64 8
  store ptr @_ZN16LogTagSetMappingILN6LogTag4typeE49ELS1_58ELS1_0ELS1_0ELS1_0ELS1_0EE7_tagsetE, ptr %.sroa.21.0..sroa_idx.i, align 8
  call void (ptr, ptr, ...) @_ZN19GCLogPreciousHandle5writeEPKcz(ptr noundef nonnull align 8 dereferenceable(16) %2, ptr noundef nonnull @.str.7)
  store i32 3, ptr %3, align 8
  %.sroa.21.0..sroa_idx.i5 = getelementptr inbounds i8, ptr %3, i64 8
  store ptr @_ZN16LogTagSetMappingILN6LogTag4typeE49ELS1_58ELS1_0ELS1_0ELS1_0ELS1_0EE7_tagsetE, ptr %.sroa.21.0..sroa_idx.i5, align 8
  %8 = call noundef i64 @_ZN2os19numa_get_groups_numEv() #7
  call void (ptr, ptr, ...) @_ZN19GCLogPreciousHandle5writeEPKcz(ptr noundef nonnull align 8 dereferenceable(16) %3, ptr noundef nonnull @.str.8, i64 noundef %8)
  br label %10

9:                                                ; preds = %1
  store i32 3, ptr %4, align 8
  %.sroa.21.0..sroa_idx.i6 = getelementptr inbounds i8, ptr %4, i64 8
  store ptr @_ZN16LogTagSetMappingILN6LogTag4typeE49ELS1_58ELS1_0ELS1_0ELS1_0ELS1_0EE7_tagsetE, ptr %.sroa.21.0..sroa_idx.i6, align 8
  call void (ptr, ptr, ...) @_ZN19GCLogPreciousHandle5writeEPKcz(ptr noundef nonnull align 8 dereferenceable(16) %4, ptr noundef nonnull @.str.9)
  br label %10

10:                                               ; preds = %9, %7
  ret void
}